; Function Attrs: mustprogress uwtable
define dso_local void @_ZN16DefaultOutputMgr19RandomOutputVarDefsEv(ptr noundef nonnull readonly align 8 captures(none) dereferenceable(40) %0) local_unnamed_addr #5 align 2 {
  %2 = getelementptr inbounds nuw i8, ptr %0, i64 8
  %3 = load ptr, ptr @_ZN16VariableSelector10GlobalListE, align 8, !tbaa !78
  %4 = load ptr, ptr getelementptr inbounds nuw (i8, ptr @_ZN16VariableSelector10GlobalListE, i64 8), align 8, !tbaa !78
  %.not8 = icmp eq ptr %3, %4
  br i1 %.not8, label %._crit_edge, label %.lr.ph

.lr.ph:                                           ; preds = %1
  %5 = getelementptr inbounds nuw i8, ptr %0, i64 16
  %6 = load ptr, ptr %5, align 8, !tbaa !27
  %7 = ptrtoint ptr %6 to i64
  %8 = load ptr, ptr %2, align 8, !tbaa !30
  %9 = ptrtoint ptr %8 to i64
  %10 = sub i64 %7, %9
  %11 = lshr exact i64 %10, 3
  %12 = trunc i64 %11 to i32
  br label %13

13:                                               ; preds = %.lr.ph, %13
  %.sroa.05.09 = phi ptr [ %3, %.lr.ph ], [ %23, %13 ]
  %14 = tail call noundef i32 @_Z13pure_rnd_uptojPK6FilterPKNSt7__cxx1112basic_stringIcSt11char_traitsIcESaIcEEE(i32 noundef %12, ptr noundef null, ptr noundef null)
  %15 = sext i32 %14 to i64
  %16 = load ptr, ptr %2, align 8, !tbaa !30
  %17 = getelementptr inbounds nuw ptr, ptr %16, i64 %15
  %18 = load ptr, ptr %17, align 8, !tbaa !29
  %19 = load ptr, ptr %.sroa.05.09, align 8, !tbaa !80
  %20 = load ptr, ptr %19, align 8, !tbaa !15
  %21 = getelementptr inbounds nuw i8, ptr %20, i64 96
  %22 = load ptr, ptr %21, align 8
  tail call void %22(ptr noundef nonnull align 8 dereferenceable(200) %19, ptr noundef nonnull align 8 dereferenceable(8) %18, i32 noundef 0)
  %23 = getelementptr inbounds nuw i8, ptr %.sroa.05.09, i64 8
  %24 = load ptr, ptr getelementptr inbounds nuw (i8, ptr @_ZN16VariableSelector10GlobalListE, i64 8), align 8, !tbaa !78
  %.not = icmp eq ptr %23, %24
  br i1 %.not, label %._crit_edge, label %13, !llvm.loop !82

._crit_edge:                                      ; preds = %13, %1
  ret void
}